target datalayout = "e-m:e-p270:32:32-p271:32:32-p272:64:64-i64:64-i128:128-f80:128-n8:16:32:64-S128"
target triple = "x86_64-pc-linux-gnu"

%"class.icu_77::ICUDataTable" = type { ptr, %"class.icu_77::Locale" }
%"class.icu_77::Locale" = type <{ %"class.icu_77::UObject", [12 x i8], [6 x i8], [4 x i8], [2 x i8], i32, [4 x i8], ptr, [157 x i8], [3 x i8], ptr, i8, [7 x i8] }>
%"class.icu_77::UObject" = type { ptr }
%"class.icu_77::UnicodeString" = type { %"class.icu_77::Replaceable", %"union.icu_77::UnicodeString::StackBufferOrFields" }
%"class.icu_77::Replaceable" = type { %"class.icu_77::UObject" }
%"union.icu_77::UnicodeString::StackBufferOrFields" = type { %struct.anon.0, [32 x i8] }
%struct.anon.0 = type { i16, i32, i32, ptr }
%"class.icu_77::LocaleDisplayNamesImpl" = type <{ %"class.icu_77::LocaleDisplayNames", %"class.icu_77::Locale", i32, [4 x i8], %"class.icu_77::ICUDataTable", %"class.icu_77::ICUDataTable", %"class.icu_77::SimpleFormatter", %"class.icu_77::SimpleFormatter", %"class.icu_77::SimpleFormatter", i32, [4 x i8], ptr, %"class.icu_77::UnicodeString", %"class.icu_77::UnicodeString", %"class.icu_77::UnicodeString", %"class.icu_77::UnicodeString", i32, i32, [6 x i8], [2 x i8] }>
%"class.icu_77::LocaleDisplayNames" = type { %"class.icu_77::UObject" }
%"class.icu_77::SimpleFormatter" = type { [8 x i8], %"class.icu_77::UnicodeString" }

; Function Attrs: mustprogress nounwind uwtable
define noundef i32 @_ZNK6icu_7722LocaleDisplayNamesImpl10getContextE19UDisplayContextType(ptr noundef nonnull align 8 dereferenceable(1206) %0, i32 noundef %1) unnamed_addr #0 align 2 {
  %3 = alloca i32, align 4
  %4 = alloca ptr, align 8
  %5 = alloca i32, align 4
  store ptr %0, ptr %4, align 8, !tbaa !38
  store i32 %1, ptr %5, align 4, !tbaa !67
  %6 = load ptr, ptr %4, align 8
  %7 = load i32, ptr %5, align 4, !tbaa !67
  switch i32 %7, label %20 [
    i32 0, label %8
    i32 1, label %11
    i32 2, label %14
    i32 3, label %17
  ]

8:                                                ; preds = %2
  %9 = getelementptr inbounds nuw %"class.icu_77::LocaleDisplayNamesImpl", ptr %6, i32 0, i32 2
  %10 = load i32, ptr %9, align 8, !tbaa !44
  store i32 %10, ptr %3, align 4
  br label %22

11:                                               ; preds = %2
  %12 = getelementptr inbounds nuw %"class.icu_77::LocaleDisplayNamesImpl", ptr %6, i32 0, i32 9
  %13 = load i32, ptr %12, align 8, !tbaa !52
  store i32 %13, ptr %3, align 4
  br label %22

14:                                               ; preds = %2
  %15 = getelementptr inbounds nuw %"class.icu_77::LocaleDisplayNamesImpl", ptr %6, i32 0, i32 16
  %16 = load i32, ptr %15, align 8, !tbaa !54
  store i32 %16, ptr %3, align 4
  br label %22

17:                                               ; preds = %2
  %18 = getelementptr inbounds nuw %"class.icu_77::LocaleDisplayNamesImpl", ptr %6, i32 0, i32 17
  %19 = load i32, ptr %18, align 4, !tbaa !55
  store i32 %19, ptr %3, align 4
  br label %22

20:                                               ; preds = %2
  br label %21

21:                                               ; preds = %20
  store i32 0, ptr %3, align 4
  br label %22

22:                                               ; preds = %21, %17, %14, %11, %8
  %23 = load i32, ptr %3, align 4
  ret i32 %23
}