; Function Attrs: mustprogress nofree norecurse nosync nounwind willreturn memory(argmem: read) uwtable
define noundef i32 @_ZNK6icu_7722LocaleDisplayNamesImpl10getContextE19UDisplayContextType(ptr noundef nonnull readonly align 8 captures(none) dereferenceable(1206) %0, i32 noundef %1) unnamed_addr #15 align 2 {
  switch i32 %1, label %15 [
    i32 0, label %3
    i32 1, label %6
    i32 2, label %9
    i32 3, label %12
  ]

3:                                                ; preds = %2
  %4 = getelementptr inbounds nuw i8, ptr %0, i64 232
  %5 = load i32, ptr %4, align 8, !tbaa !23
  br label %15

6:                                                ; preds = %2
  %7 = getelementptr inbounds nuw i8, ptr %0, i64 920
  %8 = load i32, ptr %7, align 8, !tbaa !32
  br label %15

9:                                                ; preds = %2
  %10 = getelementptr inbounds nuw i8, ptr %0, i64 1192
  %11 = load i32, ptr %10, align 8, !tbaa !34
  br label %15

12:                                               ; preds = %2
  %13 = getelementptr inbounds nuw i8, ptr %0, i64 1196
  %14 = load i32, ptr %13, align 4, !tbaa !35
  br label %15

15:                                               ; preds = %2, %12, %9, %6, %3
  %.0 = phi i32 [ %14, %12 ], [ %11, %9 ], [ %8, %6 ], [ %5, %3 ], [ 0, %2 ]
  ret i32 %.0
}